target datalayout = "e-m:e-p270:32:32-p271:32:32-p272:64:64-i64:64-i128:128-f80:128-n8:16:32:64-S128"
target triple = "x86_64-pc-linux-gnu"

; Function Attrs: nounwind uwtable
define i32 @php_crc32_bulk_update(i32 noundef %0, ptr noundef %1, i64 noundef %2) #0 {
  %4 = alloca i32, align 4
  %5 = alloca ptr, align 8
  %6 = alloca i64, align 8
  %7 = alloca i64, align 8
  store i32 %0, ptr %4, align 4
  store ptr %1, ptr %5, align 8
  store i64 %2, ptr %6, align 8
  %8 = load ptr, ptr %5, align 8
  %9 = load i64, ptr %6, align 8
  %10 = call i64 @crc32_x86_simd_update(i32 noundef 1, ptr noundef %4, ptr noundef %8, i64 noundef %9)
  store i64 %10, ptr %7, align 8
  %11 = load i64, ptr %7, align 8
  %12 = load i64, ptr %6, align 8
  %13 = sub i64 %12, %11
  store i64 %13, ptr %6, align 8
  %14 = load i64, ptr %7, align 8
  %15 = load ptr, ptr %5, align 8
  %16 = getelementptr inbounds i8, ptr %15, i64 %14
  store ptr %16, ptr %5, align 8
  br label %17

17:                                               ; preds = %35, %3
  %18 = load i64, ptr %6, align 8
  %19 = add i64 %18, -1
  store i64 %19, ptr %6, align 8
  %20 = icmp ne i64 %18, 0
  br i1 %20, label %21, label %38

21:                                               ; preds = %17
  %22 = load i32, ptr %4, align 4
  %23 = lshr i32 %22, 8
  %24 = and i32 %23, 16777215
  %25 = load i32, ptr %4, align 4
  %26 = load ptr, ptr %5, align 8
  %27 = load i8, ptr %26, align 1
  %28 = sext i8 %27 to i32
  %29 = xor i32 %25, %28
  %30 = and i32 %29, 255
  %31 = zext i32 %30 to i64
  %32 = getelementptr inbounds [256 x i32], ptr @crc32tab, i64 0, i64 %31
  %33 = load i32, ptr %32, align 4
  %34 = xor i32 %24, %33
  store i32 %34, ptr %4, align 4
  br label %35

35:                                               ; preds = %21
  %36 = load ptr, ptr %5, align 8
  %37 = getelementptr inbounds i8, ptr %36, i32 1
  store ptr %37, ptr %5, align 8
  br label %17

38:                                               ; preds = %17
  %39 = load i32, ptr %4, align 4
  ret i32 %39
}

; Function Attrs: nounwind uwtable
define i32 @php_crc32_stream_bulk_update(ptr noundef %0, ptr noundef %1, i64 noundef %2) #0 {
  %4 = alloca i32, align 4
  %5 = alloca ptr, align 8
  %6 = alloca ptr, align 8
  %7 = alloca i64, align 8
  %8 = alloca i64, align 8
  %9 = alloca i64, align 8
  %10 = alloca [1024 x i8], align 16
  store ptr %0, ptr %5, align 8
  store ptr %1, ptr %6, align 8
  store i64 %2, ptr %7, align 8
  store i64 0, ptr %8, align 8
  br label %11

11:                                               ; preds = %43, %3
  %12 = load i64, ptr %8, align 8
  %13 = load i64, ptr %7, align 8
  %14 = icmp ult i64 %12, %13
  br i1 %14, label %15, label %44

15:                                               ; preds = %11
  %16 = load i64, ptr %7, align 8
  %17 = load i64, ptr %8, align 8
  %18 = sub i64 %16, %17
  store i64 %18, ptr %9, align 8
  %19 = load i64, ptr %9, align 8
  %20 = icmp ult i64 %19, 1024
  br i1 %20, label %21, label %23

21:                                               ; preds = %15
  %22 = load i64, ptr %9, align 8
  br label %24

23:                                               ; preds = %15
  br label %24

24:                                               ; preds = %23, %21
  %25 = phi i64 [ %22, %21 ], [ 1024, %23 ]
  store i64 %25, ptr %9, align 8
  %26 = load ptr, ptr %6, align 8
  %27 = getelementptr inbounds [1024 x i8], ptr %10, i64 0, i64 0
  %28 = load i64, ptr %9, align 8
  %29 = call i64 @_php_stream_read(ptr noundef %26, ptr noundef %27, i64 noundef %28)
  store i64 %29, ptr %9, align 8
  %30 = load i64, ptr %9, align 8
  %31 = icmp ugt i64 %30, 0
  br i1 %31, label %32, label %42

32:                                               ; preds = %24
  %33 = load ptr, ptr %5, align 8
  %34 = load i32, ptr %33, align 4
  %35 = getelementptr inbounds [1024 x i8], ptr %10, i64 0, i64 0
  %36 = load i64, ptr %9, align 8
  %37 = call i32 @php_crc32_bulk_update(i32 noundef %34, ptr noundef %35, i64 noundef %36)
  %38 = load ptr, ptr %5, align 8
  store i32 %37, ptr %38, align 4
  %39 = load i64, ptr %9, align 8
  %40 = load i64, ptr %8, align 8
  %41 = add i64 %40, %39
  store i64 %41, ptr %8, align 8
  br label %43

42:                                               ; preds = %24
  store i32 -1, ptr %4, align 4
  br label %45

43:                                               ; preds = %32
  br label %11

44:                                               ; preds = %11
  store i32 0, ptr %4, align 4
  br label %45

45:                                               ; preds = %44, %42
  %46 = load i32, ptr %4, align 4
  ret i32 %46
}