; Function Attrs: nounwind uwtable
define noundef i32 @php_crc32_stream_bulk_update(ptr nocapture noundef %0, ptr noundef %1, i64 noundef %2) local_unnamed_addr #0 {
  %4 = alloca i32, align 4
  %5 = alloca [1024 x i8], align 16
  %.not20 = icmp eq i64 %2, 0
  br i1 %.not20, label %._crit_edge, label %.lr.ph

.lr.ph:                                           ; preds = %3, %php_crc32_bulk_update.exit
  %.017 = phi i64 [ %24, %php_crc32_bulk_update.exit ], [ 0, %3 ]
  %6 = sub i64 %2, %.017
  %7 = call i64 @llvm.umin.i64(i64 %6, i64 1024)
  %8 = call i64 @_php_stream_read(ptr noundef %1, ptr noundef nonnull %5, i64 noundef %7) #4
  %.not = icmp eq i64 %8, 0
  br i1 %.not, label %._crit_edge, label %9

9:                                                ; preds = %.lr.ph
  %10 = load i32, ptr %0, align 4
  call void @llvm.lifetime.start.p0(i64 4, ptr nonnull %4)
  store i32 %10, ptr %4, align 4
  %11 = call i64 @crc32_x86_simd_update(i32 noundef 1, ptr noundef nonnull %4, ptr noundef nonnull %5, i64 noundef %8) #4
  %12 = sub i64 %8, %11
  %.promoted.i = load i32, ptr %4, align 4
  %.not9.i = icmp eq i64 %12, 0
  br i1 %.not9.i, label %php_crc32_bulk_update.exit, label %.lr.ph.preheader.i

.lr.ph.preheader.i:                               ; preds = %9
  %13 = getelementptr inbounds i8, ptr %5, i64 %11
  br label %.lr.ph.i

.lr.ph.i:                                         ; preds = %.lr.ph.i, %.lr.ph.preheader.i
  %.011.i = phi ptr [ %22, %.lr.ph.i ], [ %13, %.lr.ph.preheader.i ]
  %.0810.i = phi i64 [ %15, %.lr.ph.i ], [ %12, %.lr.ph.preheader.i ]
  %14 = phi i32 [ %21, %.lr.ph.i ], [ %.promoted.i, %.lr.ph.preheader.i ]
  %15 = add i64 %.0810.i, -1
  %16 = lshr i32 %14, 8
  %17 = load i8, ptr %.011.i, align 1
  %.tr.i = trunc i32 %14 to i8
  %.narrow.i = xor i8 %17, %.tr.i
  %18 = zext i8 %.narrow.i to i64
  %19 = getelementptr inbounds [256 x i32], ptr @crc32tab, i64 0, i64 %18
  %20 = load i32, ptr %19, align 4
  %21 = xor i32 %20, %16
  %22 = getelementptr inbounds i8, ptr %.011.i, i64 1
  %.not.i = icmp eq i64 %15, 0
  br i1 %.not.i, label %php_crc32_bulk_update.exit, label %.lr.ph.i

php_crc32_bulk_update.exit:                       ; preds = %.lr.ph.i, %9
  %23 = phi i32 [ %.promoted.i, %9 ], [ %21, %.lr.ph.i ]
  call void @llvm.lifetime.end.p0(i64 4, ptr nonnull %4)
  store i32 %23, ptr %0, align 4
  %24 = add i64 %8, %.017
  %25 = icmp ult i64 %24, %2
  br i1 %25, label %.lr.ph, label %._crit_edge

._crit_edge:                                      ; preds = %.lr.ph, %php_crc32_bulk_update.exit, %3
  %.014 = phi i32 [ 0, %3 ], [ 0, %php_crc32_bulk_update.exit ], [ -1, %.lr.ph ]
  ret i32 %.014
}